target datalayout = "e-m:e-p270:32:32-p271:32:32-p272:64:64-i64:64-i128:128-f80:128-n8:16:32:64-S128"
target triple = "x86_64-unknown-linux-gnu"

%"class.qe::pred_abs" = type { ptr, %class.vector, %class.ref_vector, %class.svector, %class.obj_map, %class.obj_map.2, %class.obj_map.2, %class.obj_map, %class.ref_vector, %class.ref, %class.ptr_vector, %class.obj_map.7, %class.obj_map.12 }
%class.vector = type { ptr }
%class.svector = type { %class.vector.1 }
%class.vector.1 = type { ptr }
%class.obj_map.2 = type { %class.core_hashtable.3 }
%class.core_hashtable.3 = type <{ ptr, i32, i32, i32, [4 x i8] }>
%class.obj_map = type { %class.core_hashtable }
%class.core_hashtable = type <{ ptr, i32, i32, i32, [4 x i8] }>
%class.ref_vector = type { %class.ref_vector_core }
%class.ref_vector_core = type { %class.ref_manager_wrapper, %class.ptr_vector }
%class.ref_manager_wrapper = type { ptr }
%class.ref = type { ptr }
%class.ptr_vector = type { %class.vector.0 }
%class.vector.0 = type { ptr }
%class.obj_map.7 = type { %class.core_hashtable.8 }
%class.core_hashtable.8 = type <{ ptr, i32, i32, i32, [4 x i8] }>
%class.obj_map.12 = type { %class.core_hashtable.13 }
%class.core_hashtable.13 = type <{ ptr, i32, i32, i32, [4 x i8] }>
%"struct.qe::max_level" = type { i32, i32 }
%"struct.obj_map<func_decl, qe::max_level>::key_data" = type { ptr, %"struct.qe::max_level" }

; Function Attrs: mustprogress nounwind uwtable
define linkonce_odr hidden void @_ZN7obj_mapI9func_declN2qe9max_levelEE8key_dataC2EPS0_RKS2_(ptr noundef nonnull align 8 dereferenceable(16) %this, ptr noundef %k, ptr noundef nonnull align 4 dereferenceable(8) %v) unnamed_addr #5 comdat align 2 {
entry:
  %this.addr = alloca ptr, align 8
  %k.addr = alloca ptr, align 8
  %v.addr = alloca ptr, align 8
  store ptr %this, ptr %this.addr, align 8
  store ptr %k, ptr %k.addr, align 8
  store ptr %v, ptr %v.addr, align 8
  %this1 = load ptr, ptr %this.addr, align 8
  %m_key = getelementptr inbounds %"struct.obj_map<func_decl, qe::max_level>::key_data", ptr %this1, i32 0, i32 0
  %0 = load ptr, ptr %k.addr, align 8
  store ptr %0, ptr %m_key, align 8
  %m_value = getelementptr inbounds %"struct.obj_map<func_decl, qe::max_level>::key_data", ptr %this1, i32 0, i32 1
  %1 = load ptr, ptr %v.addr, align 8
  call void @llvm.memcpy.p0.p0.i64(ptr align 8 %m_value, ptr align 4 %1, i64 8, i1 false)
  ret void
}

; Function Attrs: mustprogress uwtable
define linkonce_odr hidden void @_ZN7obj_mapI9func_declN2qe9max_levelEE6insertEPS0_RKS2_(ptr noundef nonnull align 8 dereferenceable(24) %this, ptr noundef %k, ptr noundef nonnull align 4 dereferenceable(8) %v) #4 comdat align 2 {
entry:
  %this.addr = alloca ptr, align 8
  %k.addr = alloca ptr, align 8
  %v.addr = alloca ptr, align 8
  %ref.tmp = alloca %"struct.obj_map<func_decl, qe::max_level>::key_data", align 8
  store ptr %this, ptr %this.addr, align 8
  store ptr %k, ptr %k.addr, align 8
  store ptr %v, ptr %v.addr, align 8
  %this1 = load ptr, ptr %this.addr, align 8
  %m_table = getelementptr inbounds %class.obj_map.12, ptr %this1, i32 0, i32 0
  %0 = load ptr, ptr %k.addr, align 8
  %1 = load ptr, ptr %v.addr, align 8
  call void @_ZN7obj_mapI9func_declN2qe9max_levelEE8key_dataC2EPS0_RKS2_(ptr noundef nonnull align 8 dereferenceable(16) %ref.tmp, ptr noundef %0, ptr noundef nonnull align 4 dereferenceable(8) %1)
  call void @_ZN14core_hashtableIN7obj_mapI9func_declN2qe9max_levelEE13obj_map_entryE8obj_hashINS4_8key_dataEE10default_eqIS7_EE6insertEOS7_(ptr noundef nonnull align 8 dereferenceable(20) %m_table, ptr noundef nonnull align 8 dereferenceable(16) %ref.tmp)
  ret void
}

; Function Attrs: mustprogress uwtable
define hidden void @_ZN2qe8pred_abs14set_decl_levelEP9func_declRKNS_9max_levelE(ptr noundef nonnull align 8 dereferenceable(216) %this, ptr noundef %f, ptr noundef nonnull align 4 dereferenceable(8) %lvl) #4 align 2 {
entry:
  %this.addr = alloca ptr, align 8
  %f.addr = alloca ptr, align 8
  %lvl.addr = alloca ptr, align 8
  store ptr %this, ptr %this.addr, align 8
  store ptr %f, ptr %f.addr, align 8
  store ptr %lvl, ptr %lvl.addr, align 8
  %this1 = load ptr, ptr %this.addr, align 8
  %m_flevel = getelementptr inbounds %"class.qe::pred_abs", ptr %this1, i32 0, i32 12
  %0 = load ptr, ptr %f.addr, align 8
  %1 = load ptr, ptr %lvl.addr, align 8
  call void @_ZN7obj_mapI9func_declN2qe9max_levelEE6insertEPS0_RKS2_(ptr noundef nonnull align 8 dereferenceable(24) %m_flevel, ptr noundef %0, ptr noundef nonnull align 4 dereferenceable(8) %1)
  ret void
}